target datalayout = "e-m:e-p270:32:32-p271:32:32-p272:64:64-i64:64-i128:128-f80:128-n8:16:32:64-S128"
target triple = "x86_64-pc-linux-gnu"

; Function Attrs: mustprogress nounwind uwtable
define linkonce_odr hidden void @_ZN2cv12cpu_baseline13accW_general_IhfEEvPKT_PT0_PKhiidi(ptr noundef %0, ptr noundef %1, ptr noundef %2, i32 noundef %3, i32 noundef %4, double noundef %5, i32 noundef %6) #2 comdat {
  %8 = alloca ptr, align 8
  %9 = alloca ptr, align 8
  %10 = alloca ptr, align 8
  %11 = alloca i32, align 4
  %12 = alloca i32, align 4
  %13 = alloca double, align 8
  %14 = alloca i32, align 4
  %15 = alloca float, align 4
  %16 = alloca float, align 4
  %17 = alloca i32, align 4
  %18 = alloca i32, align 4
  store ptr %0, ptr %8, align 8, !tbaa !3
  store ptr %1, ptr %9, align 8, !tbaa !8
  store ptr %2, ptr %10, align 8, !tbaa !3
  store i32 %3, ptr %11, align 4, !tbaa !10
  store i32 %4, ptr %12, align 4, !tbaa !10
  store double %5, ptr %13, align 8, !tbaa !31
  store i32 %6, ptr %14, align 4, !tbaa !10
  call void @llvm.lifetime.start.p0(i64 4, ptr %15) #4
  %19 = load double, ptr %13, align 8, !tbaa !31
  %20 = fptrunc double %19 to float
  store float %20, ptr %15, align 4, !tbaa !13
  call void @llvm.lifetime.start.p0(i64 4, ptr %16) #4
  %21 = load float, ptr %15, align 4, !tbaa !13
  %22 = fsub float 1.000000e+00, %21
  store float %22, ptr %16, align 4, !tbaa !13
  call void @llvm.lifetime.start.p0(i64 4, ptr %17) #4
  %23 = load i32, ptr %14, align 4, !tbaa !10
  store i32 %23, ptr %17, align 4, !tbaa !10
  %24 = load ptr, ptr %10, align 8, !tbaa !3
  %25 = icmp ne ptr %24, null
  br i1 %25, label %59, label %26

26:                                               ; preds = %7
  %27 = load i32, ptr %12, align 4, !tbaa !10
  %28 = load i32, ptr %11, align 4, !tbaa !10
  %29 = mul nsw i32 %28, %27
  store i32 %29, ptr %11, align 4, !tbaa !10
  br label %30

30:                                               ; preds = %55, %26
  %31 = load i32, ptr %17, align 4, !tbaa !10
  %32 = load i32, ptr %11, align 4, !tbaa !10
  %33 = icmp slt i32 %31, %32
  br i1 %33, label %34, label %58

34:                                               ; preds = %30
  %35 = load ptr, ptr %8, align 8, !tbaa !3
  %36 = load i32, ptr %17, align 4, !tbaa !10
  %37 = sext i32 %36 to i64
  %38 = getelementptr inbounds i8, ptr %35, i64 %37
  %39 = load i8, ptr %38, align 1, !tbaa !12
  %40 = zext i8 %39 to i32
  %41 = sitofp i32 %40 to float
  %42 = load float, ptr %15, align 4, !tbaa !13
  %43 = load ptr, ptr %9, align 8, !tbaa !8
  %44 = load i32, ptr %17, align 4, !tbaa !10
  %45 = sext i32 %44 to i64
  %46 = getelementptr inbounds float, ptr %43, i64 %45
  %47 = load float, ptr %46, align 4, !tbaa !13
  %48 = load float, ptr %16, align 4, !tbaa !13
  %49 = fmul float %47, %48
  %50 = call float @llvm.fmuladd.f32(float %41, float %42, float %49)
  %51 = load ptr, ptr %9, align 8, !tbaa !8
  %52 = load i32, ptr %17, align 4, !tbaa !10
  %53 = sext i32 %52 to i64
  %54 = getelementptr inbounds float, ptr %51, i64 %53
  store float %50, ptr %54, align 4, !tbaa !13
  br label %55

55:                                               ; preds = %34
  %56 = load i32, ptr %17, align 4, !tbaa !10
  %57 = add nsw i32 %56, 1
  store i32 %57, ptr %17, align 4, !tbaa !10
  br label %30, !llvm.loop !87

58:                                               ; preds = %30
  br label %127

59:                                               ; preds = %7
  %60 = load i32, ptr %17, align 4, !tbaa !10
  %61 = load i32, ptr %12, align 4, !tbaa !10
  %62 = mul nsw i32 %60, %61
  %63 = load ptr, ptr %8, align 8, !tbaa !3
  %64 = sext i32 %62 to i64
  %65 = getelementptr inbounds i8, ptr %63, i64 %64
  store ptr %65, ptr %8, align 8, !tbaa !3
  %66 = load i32, ptr %17, align 4, !tbaa !10
  %67 = load i32, ptr %12, align 4, !tbaa !10
  %68 = mul nsw i32 %66, %67
  %69 = load ptr, ptr %9, align 8, !tbaa !8
  %70 = sext i32 %68 to i64
  %71 = getelementptr inbounds float, ptr %69, i64 %70
  store ptr %71, ptr %9, align 8, !tbaa !8
  br label %72

72:                                               ; preds = %115, %59
  %73 = load i32, ptr %17, align 4, !tbaa !10
  %74 = load i32, ptr %11, align 4, !tbaa !10
  %75 = icmp slt i32 %73, %74
  br i1 %75, label %76, label %126

76:                                               ; preds = %72
  %77 = load ptr, ptr %10, align 8, !tbaa !3
  %78 = load i32, ptr %17, align 4, !tbaa !10
  %79 = sext i32 %78 to i64
  %80 = getelementptr inbounds i8, ptr %77, i64 %79
  %81 = load i8, ptr %80, align 1, !tbaa !12
  %82 = icmp ne i8 %81, 0
  br i1 %82, label %83, label %114

83:                                               ; preds = %76
  call void @llvm.lifetime.start.p0(i64 4, ptr %18) #4
  store i32 0, ptr %18, align 4, !tbaa !10
  br label %84

84:                                               ; preds = %110, %83
  %85 = load i32, ptr %18, align 4, !tbaa !10
  %86 = load i32, ptr %12, align 4, !tbaa !10
  %87 = icmp slt i32 %85, %86
  br i1 %87, label %89, label %88

88:                                               ; preds = %84
  call void @llvm.lifetime.end.p0(i64 4, ptr %18) #4
  br label %113

89:                                               ; preds = %84
  %90 = load ptr, ptr %8, align 8, !tbaa !3
  %91 = load i32, ptr %18, align 4, !tbaa !10
  %92 = sext i32 %91 to i64
  %93 = getelementptr inbounds i8, ptr %90, i64 %92
  %94 = load i8, ptr %93, align 1, !tbaa !12
  %95 = zext i8 %94 to i32
  %96 = sitofp i32 %95 to float
  %97 = load float, ptr %15, align 4, !tbaa !13
  %98 = load ptr, ptr %9, align 8, !tbaa !8
  %99 = load i32, ptr %18, align 4, !tbaa !10
  %100 = sext i32 %99 to i64
  %101 = getelementptr inbounds float, ptr %98, i64 %100
  %102 = load float, ptr %101, align 4, !tbaa !13
  %103 = load float, ptr %16, align 4, !tbaa !13
  %104 = fmul float %102, %103
  %105 = call float @llvm.fmuladd.f32(float %96, float %97, float %104)
  %106 = load ptr, ptr %9, align 8, !tbaa !8
  %107 = load i32, ptr %18, align 4, !tbaa !10
  %108 = sext i32 %107 to i64
  %109 = getelementptr inbounds float, ptr %106, i64 %108
  store float %105, ptr %109, align 4, !tbaa !13
  br label %110

110:                                              ; preds = %89
  %111 = load i32, ptr %18, align 4, !tbaa !10
  %112 = add nsw i32 %111, 1
  store i32 %112, ptr %18, align 4, !tbaa !10
  br label %84, !llvm.loop !88

113:                                              ; preds = %88
  br label %114

114:                                              ; preds = %113, %76
  br label %115

115:                                              ; preds = %114
  %116 = load i32, ptr %17, align 4, !tbaa !10
  %117 = add nsw i32 %116, 1
  store i32 %117, ptr %17, align 4, !tbaa !10
  %118 = load i32, ptr %12, align 4, !tbaa !10
  %119 = load ptr, ptr %8, align 8, !tbaa !3
  %120 = sext i32 %118 to i64
  %121 = getelementptr inbounds i8, ptr %119, i64 %120
  store ptr %121, ptr %8, align 8, !tbaa !3
  %122 = load i32, ptr %12, align 4, !tbaa !10
  %123 = load ptr, ptr %9, align 8, !tbaa !8
  %124 = sext i32 %122 to i64
  %125 = getelementptr inbounds float, ptr %123, i64 %124
  store ptr %125, ptr %9, align 8, !tbaa !8
  br label %72, !llvm.loop !89

126:                                              ; preds = %72
  br label %127

127:                                              ; preds = %126, %58
  call void @llvm.lifetime.end.p0(i64 4, ptr %17) #4
  call void @llvm.lifetime.end.p0(i64 4, ptr %16) #4
  call void @llvm.lifetime.end.p0(i64 4, ptr %15) #4
  ret void
}

; Function Attrs: mustprogress uwtable
define hidden void @_ZN2cv12cpu_baseline10accW_simd_EPKhPfS2_iid(ptr noundef %0, ptr noundef %1, ptr noundef %2, i32 noundef %3, i32 noundef %4, double noundef %5) #0 {
  %7 = alloca ptr, align 8
  %8 = alloca ptr, align 8
  %9 = alloca ptr, align 8
  %10 = alloca i32, align 4
  %11 = alloca i32, align 4
  %12 = alloca double, align 8
  %13 = alloca i32, align 4
  store ptr %0, ptr %7, align 8, !tbaa !3
  store ptr %1, ptr %8, align 8, !tbaa !8
  store ptr %2, ptr %9, align 8, !tbaa !3
  store i32 %3, ptr %10, align 4, !tbaa !10
  store i32 %4, ptr %11, align 4, !tbaa !10
  store double %5, ptr %12, align 8, !tbaa !31
  call void @llvm.lifetime.start.p0(i64 4, ptr %13) #4
  store i32 0, ptr %13, align 4, !tbaa !10
  %14 = load ptr, ptr %7, align 8, !tbaa !3
  %15 = load ptr, ptr %8, align 8, !tbaa !8
  %16 = load ptr, ptr %9, align 8, !tbaa !3
  %17 = load i32, ptr %10, align 4, !tbaa !10
  %18 = load i32, ptr %11, align 4, !tbaa !10
  %19 = load double, ptr %12, align 8, !tbaa !31
  %20 = load i32, ptr %13, align 4, !tbaa !10
  call void @_ZN2cv12cpu_baseline13accW_general_IhfEEvPKT_PT0_PKhiidi(ptr noundef %14, ptr noundef %15, ptr noundef %16, i32 noundef %17, i32 noundef %18, double noundef %19, i32 noundef %20)
  call void @llvm.lifetime.end.p0(i64 4, ptr %13) #4
  ret void
}

; Function Attrs: mustprogress uwtable
define hidden void @_ZN2cv10accW_8u32fEPKhPfS1_iid(ptr noundef %0, ptr noundef %1, ptr noundef %2, i32 noundef %3, i32 noundef %4, double noundef %5) #0 {
  %7 = alloca ptr, align 8
  %8 = alloca ptr, align 8
  %9 = alloca ptr, align 8
  %10 = alloca i32, align 4
  %11 = alloca i32, align 4
  %12 = alloca double, align 8
  store ptr %0, ptr %7, align 8, !tbaa !3
  store ptr %1, ptr %8, align 8, !tbaa !8
  store ptr %2, ptr %9, align 8, !tbaa !3
  store i32 %3, ptr %10, align 4, !tbaa !10
  store i32 %4, ptr %11, align 4, !tbaa !10
  store double %5, ptr %12, align 8, !tbaa !31
  %13 = load ptr, ptr %7, align 8, !tbaa !3
  %14 = load ptr, ptr %8, align 8, !tbaa !8
  %15 = load ptr, ptr %9, align 8, !tbaa !3
  %16 = load i32, ptr %10, align 4, !tbaa !10
  %17 = load i32, ptr %11, align 4, !tbaa !10
  %18 = load double, ptr %12, align 8, !tbaa !31
  call void @_ZN2cv12cpu_baseline10accW_simd_EPKhPfS2_iid(ptr noundef %13, ptr noundef %14, ptr noundef %15, i32 noundef %16, i32 noundef %17, double noundef %18)
  ret void
}